target datalayout = "e-m:e-p270:32:32-p271:32:32-p272:64:64-i64:64-i128:128-f80:128-n8:16:32:64-S128"
target triple = "x86_64-pc-linux-gnu"

%struct.strbuf = type { i64, i64, ptr }
%struct.tr2_counter_metadata = type { ptr, ptr, i8 }
%struct.tr2_counter = type { i64 }

@.str.20 = private unnamed_addr constant [22 x i8] c"trace2/tr2_tgt_perf.c\00", align 1
@.str.65 = private unnamed_addr constant [8 x i8] c"counter\00", align 1
@.str.66 = private unnamed_addr constant [11 x i8] c"th_counter\00", align 1
@__const.fn_counter.buf_payload = private unnamed_addr constant %struct.strbuf { i64 0, i64 0, ptr @strbuf_slopbuf }, align 8
@.str.67 = private unnamed_addr constant [18 x i8] c"name:%s value:%lu\00", align 1

; Function Attrs: nounwind uwtable
define internal void @fn_counter(ptr noundef %0, ptr noundef %1, i32 noundef %2) #0 {
  %4 = alloca ptr, align 8
  %5 = alloca ptr, align 8
  %6 = alloca i32, align 4
  %7 = alloca ptr, align 8
  %8 = alloca %struct.strbuf, align 8
  store ptr %0, ptr %4, align 8, !tbaa !72
  store ptr %1, ptr %5, align 8, !tbaa !74
  store i32 %2, ptr %6, align 4, !tbaa !4
  call void @llvm.lifetime.start.p0(i64 8, ptr %7) #9
  %9 = load i32, ptr %6, align 4, !tbaa !4
  %10 = icmp ne i32 %9, 0
  %11 = select i1 %10, ptr @.str.65, ptr @.str.66
  store ptr %11, ptr %7, align 8, !tbaa !8
  call void @llvm.lifetime.start.p0(i64 24, ptr %8) #9
  call void @llvm.memcpy.p0.p0.i64(ptr align 8 %8, ptr align 8 @__const.fn_counter.buf_payload, i64 24, i1 false)
  %12 = load ptr, ptr %4, align 8, !tbaa !72
  %13 = getelementptr inbounds nuw %struct.tr2_counter_metadata, ptr %12, i32 0, i32 1
  %14 = load ptr, ptr %13, align 8, !tbaa !76
  %15 = load ptr, ptr %5, align 8, !tbaa !74
  %16 = getelementptr inbounds nuw %struct.tr2_counter, ptr %15, i32 0, i32 0
  %17 = load i64, ptr %16, align 8, !tbaa !78
  call void (ptr, ptr, ...) @strbuf_addf(ptr noundef %8, ptr noundef @.str.67, ptr noundef %14, i64 noundef %17)
  %18 = load ptr, ptr %7, align 8, !tbaa !8
  %19 = load ptr, ptr %4, align 8, !tbaa !72
  %20 = getelementptr inbounds nuw %struct.tr2_counter_metadata, ptr %19, i32 0, i32 0
  %21 = load ptr, ptr %20, align 8, !tbaa !80
  call void @perf_io_write_fl(ptr noundef @.str.20, i32 noundef 596, ptr noundef %18, ptr noundef null, ptr noundef null, ptr noundef null, ptr noundef %21, ptr noundef %8)
  call void @strbuf_release(ptr noundef %8)
  call void @llvm.lifetime.end.p0(i64 24, ptr %8) #9
  call void @llvm.lifetime.end.p0(i64 8, ptr %7) #9
  ret void
}