; Function Attrs: nounwind uwtable
define internal void @fn_counter(ptr noundef readonly captures(none) %0, ptr noundef readonly captures(none) %1, i32 noundef %2) #0 {
  %4 = alloca %struct.strbuf, align 8
  %.not = icmp eq i32 %2, 0
  %5 = select i1 %.not, ptr @.str.66, ptr @.str.65
  call void @llvm.lifetime.start.p0(i64 24, ptr nonnull %4) #7
  call void @llvm.memcpy.p0.p0.i64(ptr noundef nonnull align 8 dereferenceable(24) %4, ptr noundef nonnull align 8 dereferenceable(24) @__const.fn_counter.buf_payload, i64 24, i1 false)
  %6 = getelementptr inbounds nuw i8, ptr %0, i64 8
  %7 = load ptr, ptr %6, align 8, !tbaa !57
  %8 = load i64, ptr %1, align 8, !tbaa !59
  call void (ptr, ptr, ...) @strbuf_addf(ptr noundef nonnull %4, ptr noundef nonnull @.str.67, ptr noundef %7, i64 noundef %8) #7
  %9 = load ptr, ptr %0, align 8, !tbaa !61
  call fastcc void @perf_io_write_fl(ptr noundef nonnull @.str.20, i32 noundef 596, ptr noundef nonnull %5, ptr noundef null, ptr noundef null, ptr noundef null, ptr noundef %9, ptr noundef %4)
  call void @strbuf_release(ptr noundef nonnull %4) #7
  call void @llvm.lifetime.end.p0(i64 24, ptr nonnull %4) #7
  ret void
}